; Function Attrs: mustprogress uwtable
define void @_ZN3zmq13socket_base_t12add_endpointERKNS_19endpoint_uri_pair_tEPNS_5own_tEPNS_6pipe_tE(ptr noundef nonnull align 8 dereferenceable(1825) %0, ptr noundef nonnull align 8 dereferenceable(68) %1, ptr noundef %2, ptr noundef %3) local_unnamed_addr #0 align 2 personality ptr @__gxx_personality_v0 {
  %5 = alloca %"struct.std::pair.146", align 8
  %6 = alloca %"struct.zmq::endpoint_uri_pair_t", align 8
  tail call void @_ZN3zmq5own_t12launch_childEPS0_(ptr noundef nonnull align 8 dereferenceable(1444) %0, ptr noundef %2)
  %7 = getelementptr inbounds nuw i8, ptr %0, i64 1528
  %8 = getelementptr inbounds nuw i8, ptr %1, i64 64
  %9 = load i32, ptr %8, align 8, !tbaa !119
  %10 = icmp eq i32 %9, 1
  %.idx.i = select i1 %10, i64 0, i64 32
  %11 = getelementptr inbounds nuw i8, ptr %1, i64 %.idx.i
  call void @llvm.lifetime.start.p0(i64 16, ptr nonnull %5) #36
  store ptr %2, ptr %5, align 8, !tbaa !184
  %12 = getelementptr inbounds nuw i8, ptr %5, i64 8
  store ptr %3, ptr %12, align 8, !tbaa !186
  %13 = call ptr @_ZNSt8_Rb_treeINSt7__cxx1112basic_stringIcSt11char_traitsIcESaIcEEESt4pairIKS5_S6_IPN3zmq5own_tEPNS8_6pipe_tEEESt10_Select1stISE_ESt4lessIS5_ESaISE_EE16_M_emplace_equalIJRS7_SD_EEESt17_Rb_tree_iteratorISE_EDpOT_(ptr noundef nonnull align 8 dereferenceable(48) %7, ptr noundef nonnull align 8 dereferenceable(32) %11, ptr noundef nonnull align 8 dereferenceable(16) %5)
  call void @llvm.lifetime.end.p0(i64 16, ptr nonnull %5) #36
  %.not = icmp eq ptr %3, null
  br i1 %.not, label %_ZN3zmq19endpoint_uri_pair_tD2Ev.exit, label %14

14:                                               ; preds = %4
  call void @_ZN3zmq19endpoint_uri_pair_tC2ERKS0_(ptr noundef nonnull align 8 dereferenceable(68) %6, ptr noundef nonnull align 8 dereferenceable(68) %1)
  invoke void @_ZN3zmq6pipe_t17set_endpoint_pairENS_19endpoint_uri_pair_tE(ptr noundef nonnull align 8 dereferenceable(328) %3, ptr noundef nonnull %6)
          to label %15 unwind label %29

15:                                               ; preds = %14
  %16 = getelementptr inbounds nuw i8, ptr %6, i64 32
  %17 = load ptr, ptr %16, align 8, !tbaa !13
  %18 = getelementptr inbounds nuw i8, ptr %6, i64 48
  %19 = icmp eq ptr %17, %18
  br i1 %19, label %_ZNKSt7__cxx1112basic_stringIcSt11char_traitsIcESaIcEE11_M_is_localEv.exit.thread.i.i.i, label %_ZNKSt7__cxx1112basic_stringIcSt11char_traitsIcESaIcEE11_M_is_localEv.exit.i.i.i

_ZNKSt7__cxx1112basic_stringIcSt11char_traitsIcESaIcEE11_M_is_localEv.exit.thread.i.i.i: ; preds = %15
  %20 = getelementptr inbounds nuw i8, ptr %6, i64 40
  %21 = load i64, ptr %20, align 8, !tbaa !16
  %22 = icmp ult i64 %21, 16
  call void @llvm.assume(i1 %22)
  br label %_ZNSt7__cxx1112basic_stringIcSt11char_traitsIcESaIcEED2Ev.exit.i

_ZNKSt7__cxx1112basic_stringIcSt11char_traitsIcESaIcEE11_M_is_localEv.exit.i.i.i: ; preds = %15
  call void @_ZdlPv(ptr noundef %17) #38
  br label %_ZNSt7__cxx1112basic_stringIcSt11char_traitsIcESaIcEED2Ev.exit.i

_ZNSt7__cxx1112basic_stringIcSt11char_traitsIcESaIcEED2Ev.exit.i: ; preds = %_ZNKSt7__cxx1112basic_stringIcSt11char_traitsIcESaIcEE11_M_is_localEv.exit.i.i.i, %_ZNKSt7__cxx1112basic_stringIcSt11char_traitsIcESaIcEE11_M_is_localEv.exit.thread.i.i.i
  %23 = load ptr, ptr %6, align 8, !tbaa !13
  %24 = getelementptr inbounds nuw i8, ptr %6, i64 16
  %25 = icmp eq ptr %23, %24
  br i1 %25, label %_ZNKSt7__cxx1112basic_stringIcSt11char_traitsIcESaIcEE11_M_is_localEv.exit.thread.i.i2.i, label %_ZNKSt7__cxx1112basic_stringIcSt11char_traitsIcESaIcEE11_M_is_localEv.exit.i.i1.i

_ZNKSt7__cxx1112basic_stringIcSt11char_traitsIcESaIcEE11_M_is_localEv.exit.thread.i.i2.i: ; preds = %_ZNSt7__cxx1112basic_stringIcSt11char_traitsIcESaIcEED2Ev.exit.i
  %26 = getelementptr inbounds nuw i8, ptr %6, i64 8
  %27 = load i64, ptr %26, align 8, !tbaa !16
  %28 = icmp ult i64 %27, 16
  call void @llvm.assume(i1 %28)
  br label %_ZN3zmq19endpoint_uri_pair_tD2Ev.exit

_ZNKSt7__cxx1112basic_stringIcSt11char_traitsIcESaIcEE11_M_is_localEv.exit.i.i1.i: ; preds = %_ZNSt7__cxx1112basic_stringIcSt11char_traitsIcESaIcEED2Ev.exit.i
  call void @_ZdlPv(ptr noundef %23) #38
  br label %_ZN3zmq19endpoint_uri_pair_tD2Ev.exit

29:                                               ; preds = %14
  %30 = landingpad { ptr, i32 }
          cleanup
  call void @_ZN3zmq19endpoint_uri_pair_tD2Ev(ptr noundef nonnull align 8 dereferenceable(68) %6) #36
  resume { ptr, i32 } %30

_ZN3zmq19endpoint_uri_pair_tD2Ev.exit:            ; preds = %_ZNKSt7__cxx1112basic_stringIcSt11char_traitsIcESaIcEE11_M_is_localEv.exit.i.i1.i, %_ZNKSt7__cxx1112basic_stringIcSt11char_traitsIcESaIcEE11_M_is_localEv.exit.thread.i.i2.i, %4
  ret void
}